target datalayout = "e-m:e-p270:32:32-p271:32:32-p272:64:64-i64:64-i128:128-f80:128-n8:16:32:64-S128"
target triple = "x86_64-pc-linux-gnu"

%struct.sharedObjectsStruct = type { ptr, ptr, ptr, ptr, ptr, ptr, ptr, ptr, [4 x ptr], [4 x ptr], [4 x ptr], [4 x ptr], ptr, ptr, ptr, ptr, ptr, ptr, ptr, ptr, ptr, ptr, ptr, ptr, ptr, ptr, ptr, ptr, ptr, ptr, ptr, ptr, ptr, ptr, ptr, ptr, ptr, ptr, ptr, ptr, ptr, ptr, ptr, ptr, ptr, ptr, ptr, ptr, ptr, ptr, ptr, ptr, ptr, ptr, ptr, ptr, ptr, ptr, ptr, ptr, ptr, ptr, ptr, ptr, ptr, ptr, ptr, ptr, ptr, ptr, ptr, ptr, ptr, ptr, ptr, ptr, ptr, ptr, ptr, ptr, ptr, ptr, ptr, ptr, ptr, ptr, ptr, ptr, [10 x ptr], [10000 x ptr], [32 x ptr], [32 x ptr], [32 x ptr], [32 x ptr], ptr, ptr }
%struct.client = type { i64, i64, ptr, i8, i8, i8, i8, i32, ptr, ptr, ptr, ptr, ptr, i64, i64, i32, ptr, i32, i32, ptr, i64, ptr, ptr, ptr, ptr, ptr, i32, i32, i64, ptr, i64, ptr, i64, i64, i64, i32, ptr, i64, i64, i32, i32, i32, i32, i64, i64, ptr, i64, i64, i64, i64, i64, i64, i64, i64, [41 x i8], i32, ptr, i32, i32, i64, %struct.multiState, %struct.blockingState, i64, ptr, ptr, ptr, ptr, ptr, ptr, ptr, ptr, ptr, ptr, ptr, ptr, ptr, ptr, i64, ptr, i64, i32, ptr, ptr, ptr, i64, %struct.listNode, i64, i64, i32, i64, ptr }
%struct.multiState = type { ptr, i32, i32, i32, i64, i32 }
%struct.blockingState = type { i32, i64, i32, ptr, i32, i32, i64, ptr, ptr, i64 }
%struct.listNode = type { ptr, ptr, ptr }
%struct.pubsubtype = type { i32, ptr, ptr, ptr, ptr, ptr, ptr }

@shared = external global %struct.sharedObjectsStruct, align 8

; Function Attrs: nounwind uwtable
define dso_local void @addReplyPubsubSubscribed(ptr noundef %0, ptr noundef %1, ptr noundef byval(%struct.pubsubtype) align 8 %2) #0 {
  %4 = alloca ptr, align 8
  %5 = alloca ptr, align 8
  %6 = alloca i64, align 8
  store ptr %0, ptr %4, align 8, !tbaa !5
  store ptr %1, ptr %5, align 8, !tbaa !33
  call void @llvm.lifetime.start.p0(i64 8, ptr %6) #8
  %7 = load ptr, ptr %4, align 8, !tbaa !5
  %8 = getelementptr inbounds nuw %struct.client, ptr %7, i32 0, i32 1
  %9 = load i64, ptr %8, align 8, !tbaa !34
  store i64 %9, ptr %6, align 8, !tbaa !30
  %10 = load ptr, ptr %4, align 8, !tbaa !5
  %11 = getelementptr inbounds nuw %struct.client, ptr %10, i32 0, i32 1
  %12 = load i64, ptr %11, align 8, !tbaa !34
  %13 = or i64 %12, 70368744177664
  store i64 %13, ptr %11, align 8, !tbaa !34
  %14 = load ptr, ptr %4, align 8, !tbaa !5
  %15 = getelementptr inbounds nuw %struct.client, ptr %14, i32 0, i32 7
  %16 = load i32, ptr %15, align 4, !tbaa !35
  %17 = icmp eq i32 %16, 2
  br i1 %17, label %18, label %21

18:                                               ; preds = %3
  %19 = load ptr, ptr %4, align 8, !tbaa !5
  %20 = load ptr, ptr getelementptr inbounds ([32 x ptr], ptr getelementptr inbounds nuw (%struct.sharedObjectsStruct, ptr @shared, i32 0, i32 90), i64 0, i64 3), align 8, !tbaa !33
  call void @addReply(ptr noundef %19, ptr noundef %20)
  br label %23

21:                                               ; preds = %3
  %22 = load ptr, ptr %4, align 8, !tbaa !5
  call void @addReplyPushLen(ptr noundef %22, i64 noundef 3)
  br label %23

23:                                               ; preds = %21, %18
  %24 = load ptr, ptr %4, align 8, !tbaa !5
  %25 = getelementptr inbounds nuw %struct.pubsubtype, ptr %2, i32 0, i32 4
  %26 = load ptr, ptr %25, align 8, !tbaa !38
  %27 = load ptr, ptr %26, align 8, !tbaa !33
  call void @addReply(ptr noundef %24, ptr noundef %27)
  %28 = load ptr, ptr %4, align 8, !tbaa !5
  %29 = load ptr, ptr %5, align 8, !tbaa !33
  call void @addReplyBulk(ptr noundef %28, ptr noundef %29)
  %30 = load ptr, ptr %4, align 8, !tbaa !5
  %31 = getelementptr inbounds nuw %struct.pubsubtype, ptr %2, i32 0, i32 2
  %32 = load ptr, ptr %31, align 8, !tbaa !41
  %33 = load ptr, ptr %4, align 8, !tbaa !5
  %34 = call i32 %32(ptr noundef %33)
  %35 = sext i32 %34 to i64
  call void @addReplyLongLong(ptr noundef %30, i64 noundef %35)
  %36 = load i64, ptr %6, align 8, !tbaa !30
  %37 = and i64 %36, 70368744177664
  %38 = icmp ne i64 %37, 0
  br i1 %38, label %44, label %39

39:                                               ; preds = %23
  %40 = load ptr, ptr %4, align 8, !tbaa !5
  %41 = getelementptr inbounds nuw %struct.client, ptr %40, i32 0, i32 1
  %42 = load i64, ptr %41, align 8, !tbaa !34
  %43 = and i64 %42, -70368744177665
  store i64 %43, ptr %41, align 8, !tbaa !34
  br label %44

44:                                               ; preds = %39, %23
  call void @llvm.lifetime.end.p0(i64 8, ptr %6) #8
  ret void
}