; Function Attrs: nounwind uwtable
define dso_local void @addReplyPubsubSubscribed(ptr noundef %0, ptr noundef %1, ptr noundef readonly byval(%struct.pubsubtype) align 8 captures(none) %2) local_unnamed_addr #2 {
  %4 = getelementptr inbounds nuw i8, ptr %0, i64 8
  %5 = load i64, ptr %4, align 8, !tbaa !31
  %6 = or i64 %5, 70368744177664
  store i64 %6, ptr %4, align 8, !tbaa !31
  %7 = getelementptr inbounds nuw i8, ptr %0, i64 28
  %8 = load i32, ptr %7, align 4, !tbaa !32
  %9 = icmp eq i32 %8, 2
  br i1 %9, label %10, label %12

10:                                               ; preds = %3
  %11 = load ptr, ptr getelementptr inbounds nuw (i8, ptr @shared, i64 80904), align 8, !tbaa !33
  tail call void @addReply(ptr noundef nonnull %0, ptr noundef %11) #9
  br label %13

12:                                               ; preds = %3
  tail call void @addReplyPushLen(ptr noundef nonnull %0, i64 noundef 3) #9
  br label %13

13:                                               ; preds = %12, %10
  %14 = getelementptr inbounds nuw i8, ptr %2, i64 32
  %15 = load ptr, ptr %14, align 8, !tbaa !36
  %16 = load ptr, ptr %15, align 8, !tbaa !33
  tail call void @addReply(ptr noundef nonnull %0, ptr noundef %16) #9
  tail call void @addReplyBulk(ptr noundef nonnull %0, ptr noundef %1) #9
  %17 = getelementptr inbounds nuw i8, ptr %2, i64 16
  %18 = load ptr, ptr %17, align 8, !tbaa !39
  %19 = tail call i32 %18(ptr noundef nonnull %0) #9
  %20 = sext i32 %19 to i64
  tail call void @addReplyLongLong(ptr noundef nonnull %0, i64 noundef %20) #9
  %21 = and i64 %5, 70368744177664
  %.not = icmp eq i64 %21, 0
  br i1 %.not, label %22, label %25

22:                                               ; preds = %13
  %23 = load i64, ptr %4, align 8, !tbaa !31
  %24 = and i64 %23, -70368744177665
  store i64 %24, ptr %4, align 8, !tbaa !31
  br label %25

25:                                               ; preds = %22, %13
  ret void
}